target datalayout = "e-m:e-p270:32:32-p271:32:32-p272:64:64-i64:64-i128:128-f80:128-n8:16:32:64-S128"
target triple = "x86_64-pc-linux-gnu"

%struct.block_iq4_nl = type { i16, [16 x i8] }

@kvalues_iq4nl = internal constant [16 x i8] c"\81\98\AD\BF\CF\DD\EA\F6\01\0D\19&5EYq", align 16
@.str = private unnamed_addr constant [120 x i8] c"generated/home/dtcxzyw/WorkSpace/Projects/compilers/llvm-opt-benchmark/bench/llama.cpp/llama.cpp/ggml/src/ggml-quants.c\00", align 1
@.str.1 = private unnamed_addr constant [23 x i8] c"GGML_ASSERT(%s) failed\00", align 1
@.str.6 = private unnamed_addr constant [14 x i8] c"k%QK4_NL == 0\00", align 1

; Function Attrs: nounwind uwtable
define void @quantize_row_iq4_nl_ref(ptr noalias noundef %0, ptr noalias noundef %1, i64 noundef %2) #0 {
  %4 = alloca ptr, align 8
  %5 = alloca ptr, align 8
  %6 = alloca i64, align 8
  %7 = alloca i64, align 8
  %8 = alloca [32 x i8], align 16
  %9 = alloca [32 x float], align 16
  %10 = alloca i16, align 2
  %11 = alloca ptr, align 8
  %12 = alloca float, align 4
  %13 = alloca ptr, align 8
  %14 = alloca i32, align 4
  store ptr %0, ptr %4, align 8, !tbaa !3
  store ptr %1, ptr %5, align 8, !tbaa !8
  store i64 %2, ptr %6, align 8, !tbaa !9
  %15 = load i64, ptr %6, align 8, !tbaa !9
  %16 = srem i64 %15, 32
  %17 = icmp eq i64 %16, 0
  br i1 %17, label %19, label %18

18:                                               ; preds = %3
  call void (ptr, i32, ptr, ...) @ggml_abort(ptr noundef @.str, i32 noundef 4708, ptr noundef @.str.1, ptr noundef @.str.6) #11
  unreachable

19:                                               ; preds = %3
  call void @llvm.lifetime.start.p0(i64 8, ptr %7) #10
  %20 = load i64, ptr %6, align 8, !tbaa !9
  %21 = sdiv i64 %20, 32
  store i64 %21, ptr %7, align 8, !tbaa !9
  call void @llvm.lifetime.start.p0(i64 32, ptr %8) #10
  call void @llvm.lifetime.start.p0(i64 128, ptr %9) #10
  call void @llvm.lifetime.start.p0(i64 2, ptr %10) #10
  call void @llvm.lifetime.start.p0(i64 8, ptr %11) #10
  store ptr null, ptr %11, align 8, !tbaa !61
  call void @llvm.lifetime.start.p0(i64 4, ptr %12) #10
  call void @llvm.lifetime.start.p0(i64 8, ptr %13) #10
  %22 = load ptr, ptr %5, align 8, !tbaa !8
  store ptr %22, ptr %13, align 8, !tbaa !8
  call void @llvm.lifetime.start.p0(i64 4, ptr %14) #10
  store i32 0, ptr %14, align 4, !tbaa !11
  br label %23

23:                                               ; preds = %49, %19
  %24 = load i32, ptr %14, align 4, !tbaa !11
  %25 = sext i32 %24 to i64
  %26 = load i64, ptr %7, align 8, !tbaa !9
  %27 = icmp slt i64 %25, %26
  br i1 %27, label %29, label %28

28:                                               ; preds = %23
  call void @llvm.lifetime.end.p0(i64 4, ptr %14) #10
  br label %52

29:                                               ; preds = %23
  %30 = load ptr, ptr %4, align 8, !tbaa !3
  %31 = load i32, ptr %14, align 4, !tbaa !11
  %32 = mul nsw i32 32, %31
  %33 = sext i32 %32 to i64
  %34 = getelementptr inbounds float, ptr %30, i64 %33
  %35 = load ptr, ptr %13, align 8, !tbaa !8
  %36 = load i32, ptr %14, align 4, !tbaa !11
  %37 = sext i32 %36 to i64
  %38 = getelementptr inbounds %struct.block_iq4_nl, ptr %35, i64 %37
  %39 = getelementptr inbounds nuw %struct.block_iq4_nl, ptr %38, i32 0, i32 0
  %40 = load ptr, ptr %13, align 8, !tbaa !8
  %41 = load i32, ptr %14, align 4, !tbaa !11
  %42 = sext i32 %41 to i64
  %43 = getelementptr inbounds %struct.block_iq4_nl, ptr %40, i64 %42
  %44 = getelementptr inbounds nuw %struct.block_iq4_nl, ptr %43, i32 0, i32 1
  %45 = getelementptr inbounds [16 x i8], ptr %44, i64 0, i64 0
  %46 = load ptr, ptr %11, align 8, !tbaa !61
  %47 = getelementptr inbounds [32 x float], ptr %9, i64 0, i64 0
  %48 = getelementptr inbounds [32 x i8], ptr %8, i64 0, i64 0
  call void @quantize_row_iq4_nl_impl(i32 noundef 32, i32 noundef 32, ptr noundef %34, ptr noundef %39, ptr noundef %45, ptr noundef %10, ptr noundef %46, ptr noundef %12, ptr noundef %47, ptr noundef %48, ptr noundef @kvalues_iq4nl, ptr noundef null, i32 noundef -1)
  br label %49

49:                                               ; preds = %29
  %50 = load i32, ptr %14, align 4, !tbaa !11
  %51 = add nsw i32 %50, 1
  store i32 %51, ptr %14, align 4, !tbaa !11
  br label %23, !llvm.loop !526

52:                                               ; preds = %28
  call void @llvm.lifetime.end.p0(i64 8, ptr %13) #10
  call void @llvm.lifetime.end.p0(i64 4, ptr %12) #10
  call void @llvm.lifetime.end.p0(i64 8, ptr %11) #10
  call void @llvm.lifetime.end.p0(i64 2, ptr %10) #10
  call void @llvm.lifetime.end.p0(i64 128, ptr %9) #10
  call void @llvm.lifetime.end.p0(i64 32, ptr %8) #10
  call void @llvm.lifetime.end.p0(i64 8, ptr %7) #10
  ret void
}