; Function Attrs: nounwind uwtable
define void @quantize_row_iq4_nl_ref(ptr noalias noundef readonly captures(none) %0, ptr noalias noundef writeonly captures(none) %1, i64 noundef %2) local_unnamed_addr #6 {
  %4 = alloca [32 x i8], align 16
  %5 = alloca [32 x float], align 16
  %6 = alloca i16, align 2
  %7 = alloca float, align 4
  %8 = and i64 %2, 31
  %9 = icmp eq i64 %8, 0
  br i1 %9, label %11, label %10

10:                                               ; preds = %3
  tail call void (ptr, i32, ptr, ...) @ggml_abort(ptr noundef nonnull @.str, i32 noundef 4708, ptr noundef nonnull @.str.1, ptr noundef nonnull @.str.6) #24
  unreachable

11:                                               ; preds = %3
  %12 = ashr exact i64 %2, 5
  call void @llvm.lifetime.start.p0(i64 32, ptr nonnull %4) #23
  call void @llvm.lifetime.start.p0(i64 128, ptr nonnull %5) #23
  call void @llvm.lifetime.start.p0(i64 2, ptr nonnull %6) #23
  call void @llvm.lifetime.start.p0(i64 4, ptr nonnull %7) #23
  %13 = icmp sgt i64 %12, 0
  br i1 %13, label %.lr.ph, label %._crit_edge

._crit_edge:                                      ; preds = %.lr.ph, %11
  call void @llvm.lifetime.end.p0(i64 4, ptr nonnull %7) #23
  call void @llvm.lifetime.end.p0(i64 2, ptr nonnull %6) #23
  call void @llvm.lifetime.end.p0(i64 128, ptr nonnull %5) #23
  call void @llvm.lifetime.end.p0(i64 32, ptr nonnull %4) #23
  ret void

.lr.ph:                                           ; preds = %11, %.lr.ph
  %indvars.iv = phi i64 [ %indvars.iv.next, %.lr.ph ], [ 0, %11 ]
  %.idx = shl nsw i64 %indvars.iv, 7
  %14 = getelementptr inbounds nuw i8, ptr %0, i64 %.idx
  %15 = getelementptr inbounds nuw %struct.block_iq4_nl, ptr %1, i64 %indvars.iv
  %16 = getelementptr inbounds nuw i8, ptr %15, i64 2
  call fastcc void @quantize_row_iq4_nl_impl(i32 noundef 32, ptr noundef %14, ptr noundef %15, ptr noundef nonnull %16, ptr noundef nonnull %6, ptr noundef null, ptr noundef %7, ptr noundef %5, ptr noundef %4, ptr noundef null, i32 noundef -1)
  %indvars.iv.next = add nuw nsw i64 %indvars.iv, 1
  %exitcond.not = icmp eq i64 %indvars.iv.next, %12
  br i1 %exitcond.not, label %._crit_edge, label %.lr.ph, !llvm.loop !1098
}